target datalayout = "e-m:e-p270:32:32-p271:32:32-p272:64:64-i64:64-i128:128-f80:128-n8:16:32:64-S128"
target triple = "x86_64-pc-linux-gnu"

@disp_size = internal global i32 0, align 4

; Function Attrs: nounwind uwtable
define internal void @color_changer_anim_cb(ptr noundef %0, i32 noundef %1) #0 {
  %3 = alloca ptr, align 8
  %4 = alloca i32, align 4
  %5 = alloca ptr, align 8
  %6 = alloca i32, align 4
  %7 = alloca i32, align 4
  %8 = alloca i32, align 4
  store ptr %0, ptr %3, align 8, !tbaa !7
  store i32 %1, ptr %4, align 4, !tbaa !3
  call void @llvm.lifetime.start.p0(i64 8, ptr %5) #5
  %9 = load ptr, ptr %3, align 8, !tbaa !7
  store ptr %9, ptr %5, align 8, !tbaa !7
  call void @llvm.lifetime.start.p0(i64 4, ptr %6) #5
  %10 = load ptr, ptr %5, align 8, !tbaa !7
  %11 = call ptr @lv_obj_get_parent(ptr noundef %10)
  %12 = call i32 @lv_obj_get_width(ptr noundef %11)
  %13 = call i32 @lv_display_get_dpi(ptr noundef null)
  %14 = mul nsw i32 %13, 20
  %15 = add nsw i32 %14, 80
  %16 = sdiv i32 %15, 160
  %17 = icmp sgt i32 %16, 1
  br i1 %17, label %18, label %23

18:                                               ; preds = %2
  %19 = call i32 @lv_display_get_dpi(ptr noundef null)
  %20 = mul nsw i32 %19, 20
  %21 = add nsw i32 %20, 80
  %22 = sdiv i32 %21, 160
  br label %24

23:                                               ; preds = %2
  br label %24

24:                                               ; preds = %23, %18
  %25 = phi i32 [ %22, %18 ], [ 1, %23 ]
  %26 = sub nsw i32 %12, %25
  store i32 %26, ptr %6, align 4, !tbaa !3
  call void @llvm.lifetime.start.p0(i64 4, ptr %7) #5
  %27 = load i32, ptr @disp_size, align 4, !tbaa !3
  %28 = icmp eq i32 %27, 0
  br i1 %28, label %29, label %77

29:                                               ; preds = %24
  %30 = load i32, ptr %4, align 4, !tbaa !3
  %31 = call i32 @lv_display_get_dpi(ptr noundef null)
  %32 = mul nsw i32 %31, 52
  %33 = add nsw i32 %32, 80
  %34 = sdiv i32 %33, 160
  %35 = icmp sgt i32 %34, 1
  br i1 %35, label %36, label %41

36:                                               ; preds = %29
  %37 = call i32 @lv_display_get_dpi(ptr noundef null)
  %38 = mul nsw i32 %37, 52
  %39 = add nsw i32 %38, 80
  %40 = sdiv i32 %39, 160
  br label %42

41:                                               ; preds = %29
  br label %42

42:                                               ; preds = %41, %36
  %43 = phi i32 [ %40, %36 ], [ 1, %41 ]
  %44 = load i32, ptr %6, align 4, !tbaa !3
  %45 = call i32 @lv_map(i32 noundef %30, i32 noundef 0, i32 noundef 256, i32 noundef %43, i32 noundef %44)
  store i32 %45, ptr %7, align 4, !tbaa !3
  %46 = load ptr, ptr %5, align 8, !tbaa !7
  %47 = load i32, ptr %7, align 4, !tbaa !3
  call void @lv_obj_set_width(ptr noundef %46, i32 noundef %47)
  %48 = load ptr, ptr %5, align 8, !tbaa !7
  %49 = call i32 @lv_display_get_dpi(ptr noundef null)
  %50 = mul nsw i32 %49, 10
  %51 = add nsw i32 %50, 80
  %52 = sdiv i32 %51, 160
  %53 = icmp sgt i32 %52, 1
  br i1 %53, label %54, label %59

54:                                               ; preds = %42
  %55 = call i32 @lv_display_get_dpi(ptr noundef null)
  %56 = mul nsw i32 %55, 10
  %57 = add nsw i32 %56, 80
  %58 = sdiv i32 %57, 160
  br label %60

59:                                               ; preds = %42
  br label %60

60:                                               ; preds = %59, %54
  %61 = phi i32 [ %58, %54 ], [ 1, %59 ]
  %62 = sub nsw i32 0, %61
  %63 = call i32 @lv_display_get_dpi(ptr noundef null)
  %64 = mul nsw i32 %63, 10
  %65 = add nsw i32 %64, 80
  %66 = sdiv i32 %65, 160
  %67 = icmp sgt i32 %66, 1
  br i1 %67, label %68, label %73

68:                                               ; preds = %60
  %69 = call i32 @lv_display_get_dpi(ptr noundef null)
  %70 = mul nsw i32 %69, 10
  %71 = add nsw i32 %70, 80
  %72 = sdiv i32 %71, 160
  br label %74

73:                                               ; preds = %60
  br label %74

74:                                               ; preds = %73, %68
  %75 = phi i32 [ %72, %68 ], [ 1, %73 ]
  %76 = sub nsw i32 0, %75
  call void @lv_obj_align(ptr noundef %48, i32 noundef 6, i32 noundef %62, i32 noundef %76)
  br label %125

77:                                               ; preds = %24
  %78 = load i32, ptr %4, align 4, !tbaa !3
  %79 = call i32 @lv_display_get_dpi(ptr noundef null)
  %80 = mul nsw i32 %79, 60
  %81 = add nsw i32 %80, 80
  %82 = sdiv i32 %81, 160
  %83 = icmp sgt i32 %82, 1
  br i1 %83, label %84, label %89

84:                                               ; preds = %77
  %85 = call i32 @lv_display_get_dpi(ptr noundef null)
  %86 = mul nsw i32 %85, 60
  %87 = add nsw i32 %86, 80
  %88 = sdiv i32 %87, 160
  br label %90

89:                                               ; preds = %77
  br label %90

90:                                               ; preds = %89, %84
  %91 = phi i32 [ %88, %84 ], [ 1, %89 ]
  %92 = load i32, ptr %6, align 4, !tbaa !3
  %93 = call i32 @lv_map(i32 noundef %78, i32 noundef 0, i32 noundef 256, i32 noundef %91, i32 noundef %92)
  store i32 %93, ptr %7, align 4, !tbaa !3
  %94 = load ptr, ptr %5, align 8, !tbaa !7
  %95 = load i32, ptr %7, align 4, !tbaa !3
  call void @lv_obj_set_width(ptr noundef %94, i32 noundef %95)
  %96 = load ptr, ptr %5, align 8, !tbaa !7
  %97 = call i32 @lv_display_get_dpi(ptr noundef null)
  %98 = mul nsw i32 %97, 10
  %99 = add nsw i32 %98, 80
  %100 = sdiv i32 %99, 160
  %101 = icmp sgt i32 %100, 1
  br i1 %101, label %102, label %107

102:                                              ; preds = %90
  %103 = call i32 @lv_display_get_dpi(ptr noundef null)
  %104 = mul nsw i32 %103, 10
  %105 = add nsw i32 %104, 80
  %106 = sdiv i32 %105, 160
  br label %108

107:                                              ; preds = %90
  br label %108

108:                                              ; preds = %107, %102
  %109 = phi i32 [ %106, %102 ], [ 1, %107 ]
  %110 = sub nsw i32 0, %109
  %111 = call i32 @lv_display_get_dpi(ptr noundef null)
  %112 = mul nsw i32 %111, 10
  %113 = add nsw i32 %112, 80
  %114 = sdiv i32 %113, 160
  %115 = icmp sgt i32 %114, 1
  br i1 %115, label %116, label %121

116:                                              ; preds = %108
  %117 = call i32 @lv_display_get_dpi(ptr noundef null)
  %118 = mul nsw i32 %117, 10
  %119 = add nsw i32 %118, 80
  %120 = sdiv i32 %119, 160
  br label %122

121:                                              ; preds = %108
  br label %122

122:                                              ; preds = %121, %116
  %123 = phi i32 [ %120, %116 ], [ 1, %121 ]
  %124 = sub nsw i32 0, %123
  call void @lv_obj_align(ptr noundef %96, i32 noundef 6, i32 noundef %110, i32 noundef %124)
  br label %125

125:                                              ; preds = %122, %74
  %126 = load i32, ptr %4, align 4, !tbaa !3
  %127 = icmp sgt i32 %126, 255
  br i1 %127, label %128, label %129

128:                                              ; preds = %125
  store i32 255, ptr %4, align 4, !tbaa !3
  br label %129

129:                                              ; preds = %128, %125
  call void @llvm.lifetime.start.p0(i64 4, ptr %8) #5
  store i32 0, ptr %8, align 4, !tbaa !3
  br label %130

130:                                              ; preds = %141, %129
  %131 = load i32, ptr %8, align 4, !tbaa !3
  %132 = load ptr, ptr %5, align 8, !tbaa !7
  %133 = call i32 @lv_obj_get_child_count(ptr noundef %132)
  %134 = icmp ult i32 %131, %133
  br i1 %134, label %135, label %144

135:                                              ; preds = %130
  %136 = load ptr, ptr %5, align 8, !tbaa !7
  %137 = load i32, ptr %8, align 4, !tbaa !3
  %138 = call ptr @lv_obj_get_child(ptr noundef %136, i32 noundef %137)
  %139 = load i32, ptr %4, align 4, !tbaa !3
  %140 = trunc i32 %139 to i8
  call void @lv_obj_set_style_opa(ptr noundef %138, i8 noundef zeroext %140, i32 noundef 0)
  br label %141

141:                                              ; preds = %135
  %142 = load i32, ptr %8, align 4, !tbaa !3
  %143 = add i32 %142, 1
  store i32 %143, ptr %8, align 4, !tbaa !3
  br label %130, !llvm.loop !64

144:                                              ; preds = %130
  call void @llvm.lifetime.end.p0(i64 4, ptr %8) #5
  call void @llvm.lifetime.end.p0(i64 4, ptr %7) #5
  call void @llvm.lifetime.end.p0(i64 4, ptr %6) #5
  call void @llvm.lifetime.end.p0(i64 8, ptr %5) #5
  ret void
}