; Function Attrs: nounwind uwtable
define internal void @color_changer_anim_cb(ptr noundef %0, i32 noundef %1) #0 {
  %3 = tail call ptr @lv_obj_get_parent(ptr noundef %0) #5
  %4 = tail call i32 @lv_obj_get_width(ptr noundef %3) #5
  %5 = tail call i32 @lv_display_get_dpi(ptr noundef null) #5
  %6 = icmp sgt i32 %5, 11
  br i1 %6, label %7, label %11

7:                                                ; preds = %2
  %8 = tail call i32 @lv_display_get_dpi(ptr noundef null) #5
  %9 = mul nsw i32 %8, 20
  %10 = add nsw i32 %9, 80
  %.neg = sdiv i32 %10, -160
  br label %11

11:                                               ; preds = %2, %7
  %.neg18 = phi i32 [ %.neg, %7 ], [ -1, %2 ]
  %12 = add i32 %.neg18, %4
  %13 = load i32, ptr @disp_size, align 4, !tbaa !3
  %14 = icmp eq i32 %13, 0
  %15 = tail call i32 @lv_display_get_dpi(ptr noundef null) #5
  br i1 %14, label %16, label %40

16:                                               ; preds = %11
  %17 = icmp sgt i32 %15, 4
  br i1 %17, label %18, label %23

18:                                               ; preds = %16
  %19 = tail call i32 @lv_display_get_dpi(ptr noundef null) #5
  %20 = mul nsw i32 %19, 52
  %21 = add nsw i32 %20, 80
  %22 = sdiv i32 %21, 160
  br label %23

23:                                               ; preds = %16, %18
  %24 = phi i32 [ %22, %18 ], [ 1, %16 ]
  %25 = tail call i32 @lv_map(i32 noundef %1, i32 noundef 0, i32 noundef 256, i32 noundef %24, i32 noundef %12) #5
  tail call void @lv_obj_set_width(ptr noundef %0, i32 noundef %25) #5
  %26 = tail call i32 @lv_display_get_dpi(ptr noundef null) #5
  %27 = icmp sgt i32 %26, 23
  br i1 %27, label %28, label %32

28:                                               ; preds = %23
  %29 = tail call i32 @lv_display_get_dpi(ptr noundef null) #5
  %30 = mul nsw i32 %29, 10
  %31 = add nsw i32 %30, 80
  %.neg23 = sdiv i32 %31, -160
  br label %32

32:                                               ; preds = %23, %28
  %.neg24 = phi i32 [ %.neg23, %28 ], [ -1, %23 ]
  %33 = tail call i32 @lv_display_get_dpi(ptr noundef null) #5
  %34 = icmp sgt i32 %33, 23
  br i1 %34, label %35, label %39

35:                                               ; preds = %32
  %36 = tail call i32 @lv_display_get_dpi(ptr noundef null) #5
  %37 = mul nsw i32 %36, 10
  %38 = add nsw i32 %37, 80
  %.neg25 = sdiv i32 %38, -160
  br label %39

39:                                               ; preds = %32, %35
  %.neg26 = phi i32 [ %.neg25, %35 ], [ -1, %32 ]
  tail call void @lv_obj_align(ptr noundef %0, i32 noundef 6, i32 noundef %.neg24, i32 noundef %.neg26) #5
  br label %64

40:                                               ; preds = %11
  %41 = icmp sgt i32 %15, 3
  br i1 %41, label %42, label %47

42:                                               ; preds = %40
  %43 = tail call i32 @lv_display_get_dpi(ptr noundef null) #5
  %44 = mul nsw i32 %43, 60
  %45 = add nsw i32 %44, 80
  %46 = sdiv i32 %45, 160
  br label %47

47:                                               ; preds = %40, %42
  %48 = phi i32 [ %46, %42 ], [ 1, %40 ]
  %49 = tail call i32 @lv_map(i32 noundef %1, i32 noundef 0, i32 noundef 256, i32 noundef %48, i32 noundef %12) #5
  tail call void @lv_obj_set_width(ptr noundef %0, i32 noundef %49) #5
  %50 = tail call i32 @lv_display_get_dpi(ptr noundef null) #5
  %51 = icmp sgt i32 %50, 23
  br i1 %51, label %52, label %56

52:                                               ; preds = %47
  %53 = tail call i32 @lv_display_get_dpi(ptr noundef null) #5
  %54 = mul nsw i32 %53, 10
  %55 = add nsw i32 %54, 80
  %.neg19 = sdiv i32 %55, -160
  br label %56

56:                                               ; preds = %47, %52
  %.neg20 = phi i32 [ %.neg19, %52 ], [ -1, %47 ]
  %57 = tail call i32 @lv_display_get_dpi(ptr noundef null) #5
  %58 = icmp sgt i32 %57, 23
  br i1 %58, label %59, label %63

59:                                               ; preds = %56
  %60 = tail call i32 @lv_display_get_dpi(ptr noundef null) #5
  %61 = mul nsw i32 %60, 10
  %62 = add nsw i32 %61, 80
  %.neg21 = sdiv i32 %62, -160
  br label %63

63:                                               ; preds = %56, %59
  %.neg22 = phi i32 [ %.neg21, %59 ], [ -1, %56 ]
  tail call void @lv_obj_align(ptr noundef %0, i32 noundef 6, i32 noundef %.neg20, i32 noundef %.neg22) #5
  br label %64

64:                                               ; preds = %63, %39
  %65 = tail call i32 @lv_obj_get_child_count(ptr noundef %0) #5
  %.not = icmp eq i32 %65, 0
  br i1 %.not, label %._crit_edge, label %.lr.ph

.lr.ph:                                           ; preds = %64
  %spec.store.select = tail call i32 @llvm.smin.i32(i32 %1, i32 255)
  %66 = trunc i32 %spec.store.select to i8
  br label %67

67:                                               ; preds = %.lr.ph, %67
  %.027 = phi i32 [ 0, %.lr.ph ], [ %69, %67 ]
  %68 = tail call ptr @lv_obj_get_child(ptr noundef %0, i32 noundef %.027) #5
  tail call void @lv_obj_set_style_opa(ptr noundef %68, i8 noundef zeroext %66, i32 noundef 0) #5
  %69 = add nuw i32 %.027, 1
  %70 = tail call i32 @lv_obj_get_child_count(ptr noundef %0) #5
  %71 = icmp ult i32 %69, %70
  br i1 %71, label %67, label %._crit_edge, !llvm.loop !58

._crit_edge:                                      ; preds = %67, %64
  ret void
}